; Function Attrs: mustprogress nofree norecurse nosync nounwind willreturn memory(read, inaccessiblemem: none) uwtable
define i32 @Gia_ManRegBoxNum(ptr noundef readonly captures(none) %0) local_unnamed_addr #2 {
  %2 = getelementptr inbounds nuw i8, ptr %0, i64 472
  %3 = load ptr, ptr %2, align 8, !tbaa !28
  %.not = icmp eq ptr %3, null
  br i1 %.not, label %6, label %4

4:                                                ; preds = %1
  %5 = getelementptr i8, ptr %3, i64 4
  %.val = load i32, ptr %5, align 4, !tbaa !29
  br label %6

6:                                                ; preds = %1, %4
  %7 = phi i32 [ %.val, %4 ], [ 0, %1 ]
  ret i32 %7
}